target datalayout = "e-m:e-p270:32:32-p271:32:32-p272:64:64-i64:64-i128:128-f80:128-n8:16:32:64-S128"
target triple = "x86_64-pc-linux-gnu"

%class.dtPathCorridor = type { [3 x float], [3 x float], ptr, i32, i32 }

@.str.1 = private unnamed_addr constant [153 x i8] c"generated/home/dtcxzyw/WorkSpace/Projects/compilers/llvm-opt-benchmark/bench/recastnavigation/recastnavigation/DetourCrowd/Source/DetourPathCorridor.cpp\00", align 1
@.str.3 = private unnamed_addr constant [7 x i8] c"m_path\00", align 1
@.str.8 = private unnamed_addr constant [10 x i8] c"npath > 0\00", align 1
@.str.9 = private unnamed_addr constant [19 x i8] c"npath <= m_maxPath\00", align 1

; Function Attrs: mustprogress nounwind uwtable
define linkonce_odr void @_Z7dtVcopyPfPKf(ptr noundef %0, ptr noundef %1) #1 comdat {
  %3 = alloca ptr, align 8
  %4 = alloca ptr, align 8
  store ptr %0, ptr %3, align 8
  store ptr %1, ptr %4, align 8
  %5 = load ptr, ptr %4, align 8
  %6 = getelementptr inbounds float, ptr %5, i64 0
  %7 = load float, ptr %6, align 4
  %8 = load ptr, ptr %3, align 8
  %9 = getelementptr inbounds float, ptr %8, i64 0
  store float %7, ptr %9, align 4
  %10 = load ptr, ptr %4, align 8
  %11 = getelementptr inbounds float, ptr %10, i64 1
  %12 = load float, ptr %11, align 4
  %13 = load ptr, ptr %3, align 8
  %14 = getelementptr inbounds float, ptr %13, i64 1
  store float %12, ptr %14, align 4
  %15 = load ptr, ptr %4, align 8
  %16 = getelementptr inbounds float, ptr %15, i64 2
  %17 = load float, ptr %16, align 4
  %18 = load ptr, ptr %3, align 8
  %19 = getelementptr inbounds float, ptr %18, i64 2
  store float %17, ptr %19, align 4
  ret void
}

; Function Attrs: mustprogress uwtable
define void @_ZN14dtPathCorridor11setCorridorEPKfPKji(ptr noundef nonnull align 8 dereferenceable(40) %0, ptr noundef %1, ptr noundef %2, i32 noundef %3) #0 align 2 {
  %5 = alloca ptr, align 8
  %6 = alloca ptr, align 8
  %7 = alloca ptr, align 8
  %8 = alloca i32, align 4
  %9 = alloca ptr, align 8
  %10 = alloca ptr, align 8
  %11 = alloca ptr, align 8
  store ptr %0, ptr %5, align 8
  store ptr %1, ptr %6, align 8
  store ptr %2, ptr %7, align 8
  store i32 %3, ptr %8, align 4
  %12 = load ptr, ptr %5, align 8
  %13 = call noundef ptr @_Z21dtAssertFailGetCustomv()
  store ptr %13, ptr %9, align 8
  %14 = load ptr, ptr %9, align 8
  %15 = icmp eq ptr %14, null
  br i1 %15, label %16, label %17

16:                                               ; preds = %4
  br label %24

17:                                               ; preds = %4
  %18 = getelementptr inbounds %class.dtPathCorridor, ptr %12, i32 0, i32 2
  %19 = load ptr, ptr %18, align 8
  %20 = icmp ne ptr %19, null
  br i1 %20, label %23, label %21

21:                                               ; preds = %17
  %22 = load ptr, ptr %9, align 8
  call void %22(ptr noundef @.str.3, ptr noundef @.str.1, i32 noundef 513)
  br label %23

23:                                               ; preds = %21, %17
  br label %24

24:                                               ; preds = %23, %16
  %25 = call noundef ptr @_Z21dtAssertFailGetCustomv()
  store ptr %25, ptr %10, align 8
  %26 = load ptr, ptr %10, align 8
  %27 = icmp eq ptr %26, null
  br i1 %27, label %28, label %29

28:                                               ; preds = %24
  br label %35

29:                                               ; preds = %24
  %30 = load i32, ptr %8, align 4
  %31 = icmp sgt i32 %30, 0
  br i1 %31, label %34, label %32

32:                                               ; preds = %29
  %33 = load ptr, ptr %10, align 8
  call void %33(ptr noundef @.str.8, ptr noundef @.str.1, i32 noundef 514)
  br label %34

34:                                               ; preds = %32, %29
  br label %35

35:                                               ; preds = %34, %28
  %36 = call noundef ptr @_Z21dtAssertFailGetCustomv()
  store ptr %36, ptr %11, align 8
  %37 = load ptr, ptr %11, align 8
  %38 = icmp eq ptr %37, null
  br i1 %38, label %39, label %40

39:                                               ; preds = %35
  br label %48

40:                                               ; preds = %35
  %41 = load i32, ptr %8, align 4
  %42 = getelementptr inbounds %class.dtPathCorridor, ptr %12, i32 0, i32 4
  %43 = load i32, ptr %42, align 4
  %44 = icmp sle i32 %41, %43
  br i1 %44, label %47, label %45

45:                                               ; preds = %40
  %46 = load ptr, ptr %11, align 8
  call void %46(ptr noundef @.str.9, ptr noundef @.str.1, i32 noundef 515)
  br label %47

47:                                               ; preds = %45, %40
  br label %48

48:                                               ; preds = %47, %39
  %49 = getelementptr inbounds %class.dtPathCorridor, ptr %12, i32 0, i32 1
  %50 = getelementptr inbounds [3 x float], ptr %49, i64 0, i64 0
  %51 = load ptr, ptr %6, align 8
  call void @_Z7dtVcopyPfPKf(ptr noundef %50, ptr noundef %51)
  %52 = getelementptr inbounds %class.dtPathCorridor, ptr %12, i32 0, i32 2
  %53 = load ptr, ptr %52, align 8
  %54 = load ptr, ptr %7, align 8
  %55 = load i32, ptr %8, align 4
  %56 = sext i32 %55 to i64
  %57 = mul i64 4, %56
  call void @llvm.memcpy.p0.p0.i64(ptr align 4 %53, ptr align 4 %54, i64 %57, i1 false)
  %58 = load i32, ptr %8, align 4
  %59 = getelementptr inbounds %class.dtPathCorridor, ptr %12, i32 0, i32 3
  store i32 %58, ptr %59, align 8
  ret void
}