; Function Attrs: mustprogress uwtable
define void @_ZN14dtPathCorridor11setCorridorEPKfPKji(ptr noundef nonnull align 8 captures(none) dereferenceable(40) initializes((12, 24), (32, 36)) %0, ptr noundef readonly captures(none) %1, ptr noundef readonly captures(none) %2, i32 noundef %3) local_unnamed_addr #2 align 2 {
  %5 = tail call noundef ptr @_Z21dtAssertFailGetCustomv()
  %6 = icmp ne ptr %5, null
  %7 = getelementptr inbounds nuw i8, ptr %0, i64 24
  %8 = load ptr, ptr %7, align 8
  %.not = icmp eq ptr %8, null
  %or.cond17 = select i1 %6, i1 %.not, i1 false
  br i1 %or.cond17, label %9, label %10

9:                                                ; preds = %4
  tail call void %5(ptr noundef nonnull @.str.3, ptr noundef nonnull @.str.1, i32 noundef 513)
  br label %10

10:                                               ; preds = %9, %4
  %11 = tail call noundef ptr @_Z21dtAssertFailGetCustomv()
  %12 = icmp eq ptr %11, null
  %13 = icmp sgt i32 %3, 0
  %or.cond = or i1 %13, %12
  br i1 %or.cond, label %15, label %14

14:                                               ; preds = %10
  tail call void %11(ptr noundef nonnull @.str.8, ptr noundef nonnull @.str.1, i32 noundef 514)
  br label %15

15:                                               ; preds = %14, %10
  %16 = tail call noundef ptr @_Z21dtAssertFailGetCustomv()
  %17 = icmp ne ptr %16, null
  %18 = getelementptr inbounds nuw i8, ptr %0, i64 36
  %19 = load i32, ptr %18, align 4
  %.not15 = icmp sgt i32 %3, %19
  %or.cond19 = select i1 %17, i1 %.not15, i1 false
  br i1 %or.cond19, label %20, label %21

20:                                               ; preds = %15
  tail call void %16(ptr noundef nonnull @.str.9, ptr noundef nonnull @.str.1, i32 noundef 515)
  br label %21

21:                                               ; preds = %20, %15
  %22 = getelementptr inbounds nuw i8, ptr %0, i64 12
  %23 = load float, ptr %1, align 4
  store float %23, ptr %22, align 4
  %24 = getelementptr inbounds nuw i8, ptr %1, i64 4
  %25 = load float, ptr %24, align 4
  %26 = getelementptr inbounds nuw i8, ptr %0, i64 16
  store float %25, ptr %26, align 8
  %27 = getelementptr inbounds nuw i8, ptr %1, i64 8
  %28 = load float, ptr %27, align 4
  %29 = getelementptr inbounds nuw i8, ptr %0, i64 20
  store float %28, ptr %29, align 4
  %30 = load ptr, ptr %7, align 8
  %31 = sext i32 %3 to i64
  %32 = shl nsw i64 %31, 2
  tail call void @llvm.memcpy.p0.p0.i64(ptr align 4 %30, ptr align 4 %2, i64 %32, i1 false)
  %33 = getelementptr inbounds nuw i8, ptr %0, i64 32
  store i32 %3, ptr %33, align 8
  ret void
}